target datalayout = "e-m:e-p270:32:32-p271:32:32-p272:64:64-i64:64-i128:128-f80:128-n8:16:32:64-S128"
target triple = "x86_64-pc-linux-gnu"

%class.QPoint = type { i32, i32 }
%class.QInputEvent = type { %class.QEvent, ptr, i64, %class.QFlags.5, i32 }
%class.QEvent = type { ptr, i16, i8, i8, i8, i8, i16 }
%class.QFlags.5 = type { i32 }
%class.QContextMenuEvent = type <{ %class.QInputEvent, %class.QPoint, %class.QPoint, i8, [7 x i8] }>

; Function Attrs: inlinehint mustprogress nounwind null_pointer_is_valid sspstrong uwtable
define linkonce_odr noundef align 4 dereferenceable(8) ptr @_ZNK17QContextMenuEvent9globalPosEv(ptr noundef align 8 dereferenceable_or_null(57) %0) #1 comdat align 2 {
  %2 = alloca ptr, align 8
  store ptr %0, ptr %2, align 8
  %3 = load ptr, ptr %2, align 8
  %4 = getelementptr inbounds nuw %class.QContextMenuEvent, ptr %3, i32 0, i32 2
  ret ptr %4
}

; Function Attrs: mustprogress null_pointer_is_valid sspstrong uwtable
define void @_ZN10LabelStack16contextMenuEventEP17QContextMenuEvent(ptr noundef align 8 dereferenceable_or_null(112) %0, ptr noundef %1) unnamed_addr #0 align 2 {
  %3 = alloca ptr, align 8
  %4 = alloca ptr, align 8
  %5 = alloca %class.QPoint, align 4
  store ptr %0, ptr %3, align 8
  store ptr %1, ptr %4, align 8
  %6 = load ptr, ptr %3, align 8
  call void @llvm.lifetime.start.p0(i64 8, ptr %5) #19
  %7 = load ptr, ptr %4, align 8
  %8 = call noundef align 4 dereferenceable(8) ptr @_ZNK17QContextMenuEvent9globalPosEv(ptr noundef align 8 dereferenceable_or_null(57) %7)
  call void @llvm.memcpy.p0.p0.i64(ptr align 4 %5, ptr align 4 %8, i64 8, i1 false)
  call void @_ZN10LabelStack14mousePressedAtERK6QPointN2Qt11MouseButtonE(ptr noundef align 8 dereferenceable_or_null(112) %6, ptr noundef align 4 dereferenceable(8) %5, i32 noundef 2)
  call void @llvm.lifetime.end.p0(i64 8, ptr %5) #19
  ret void
}